target datalayout = "e-m:e-p270:32:32-p271:32:32-p272:64:64-i64:64-i128:128-f80:128-n8:16:32:64-S128"
target triple = "x86_64-pc-linux-gnu"

%struct.PaAlsaStreamComponent = type { i64, i32, i32, i32, i32, i32, ptr, i32, i32, i32, i32, ptr, i64, i64, i32, i32, i32, ptr, i64, i32, ptr }

@alsa_snd_pcm_poll_descriptors_revents = internal global ptr null, align 8
@alsa_snd_strerror = internal global ptr null, align 8
@paUnixMainThread = external global i64, align 8

; Function Attrs: inlinehint nounwind willreturn memory(none) uwtable
define available_externally i32 @pthread_equal(i64 noundef %0, i64 noundef %1) #8 {
  %3 = alloca i64, align 8
  %4 = alloca i64, align 8
  store i64 %0, ptr %3, align 8, !tbaa !37
  store i64 %1, ptr %4, align 8, !tbaa !37
  %5 = load i64, ptr %3, align 8, !tbaa !37
  %6 = load i64, ptr %4, align 8, !tbaa !37
  %7 = icmp eq i64 %5, %6
  %8 = zext i1 %7 to i32
  ret i32 %8
}

; Function Attrs: nounwind uwtable
define internal i32 @PaAlsaStreamComponent_EndPolling(ptr noundef %0, ptr noundef %1, ptr noundef %2, ptr noundef %3) #0 {
  %5 = alloca i32, align 4
  %6 = alloca ptr, align 8
  %7 = alloca ptr, align 8
  %8 = alloca ptr, align 8
  %9 = alloca ptr, align 8
  %10 = alloca i32, align 4
  %11 = alloca i16, align 2
  %12 = alloca i32, align 4
  %13 = alloca i32, align 4
  store ptr %0, ptr %6, align 8, !tbaa !32
  store ptr %1, ptr %7, align 8, !tbaa !208
  store ptr %2, ptr %8, align 8, !tbaa !122
  store ptr %3, ptr %9, align 8, !tbaa !122
  call void @llvm.lifetime.start.p0(i64 4, ptr %10) #17
  store i32 0, ptr %10, align 4, !tbaa !8
  call void @llvm.lifetime.start.p0(i64 2, ptr %11) #17
  br label %14

14:                                               ; preds = %4
  call void @llvm.lifetime.start.p0(i64 4, ptr %12) #17
  %15 = load ptr, ptr @alsa_snd_pcm_poll_descriptors_revents, align 8, !tbaa !32
  %16 = load ptr, ptr %6, align 8, !tbaa !32
  %17 = getelementptr inbounds nuw %struct.PaAlsaStreamComponent, ptr %16, i32 0, i32 11
  %18 = load ptr, ptr %17, align 8, !tbaa !179
  %19 = load ptr, ptr %7, align 8, !tbaa !208
  %20 = load ptr, ptr %6, align 8, !tbaa !32
  %21 = getelementptr inbounds nuw %struct.PaAlsaStreamComponent, ptr %20, i32 0, i32 15
  %22 = load i32, ptr %21, align 4, !tbaa !180
  %23 = call i32 %15(ptr noundef %18, ptr noundef %19, i32 noundef %22, ptr noundef %11)
  store i32 %23, ptr %12, align 4, !tbaa !8
  %24 = icmp slt i32 %23, 0
  %25 = zext i1 %24 to i32
  %26 = sext i32 %25 to i64
  %27 = call i64 @llvm.expect.i64(i64 %26, i64 0)
  %28 = icmp ne i64 %27, 0
  br i1 %28, label %29, label %41

29:                                               ; preds = %14
  %30 = call i64 @pthread_self() #20
  %31 = load i64, ptr @paUnixMainThread, align 8, !tbaa !37
  %32 = call i32 @pthread_equal(i64 noundef %30, i64 noundef %31) #20
  %33 = icmp ne i32 %32, 0
  br i1 %33, label %34, label %40

34:                                               ; preds = %29
  %35 = load i32, ptr %12, align 4, !tbaa !8
  %36 = sext i32 %35 to i64
  %37 = load ptr, ptr @alsa_snd_strerror, align 8, !tbaa !32
  %38 = load i32, ptr %12, align 4, !tbaa !8
  %39 = call ptr %37(i32 noundef %38)
  call void @PaUtil_SetLastHostErrorInfo(i32 noundef 8, i64 noundef %36, ptr noundef %39)
  br label %40

40:                                               ; preds = %34, %29
  call void (ptr, ...) @PaUtil_DebugPrint(ptr noundef @.str.187)
  store i32 -9999, ptr %10, align 4, !tbaa !8
  store i32 4, ptr %13, align 4
  br label %42

41:                                               ; preds = %14
  store i32 0, ptr %13, align 4
  br label %42

42:                                               ; preds = %40, %41
  call void @llvm.lifetime.end.p0(i64 4, ptr %12) #17
  %43 = load i32, ptr %13, align 4
  switch i32 %43, label %83 [
    i32 0, label %44
    i32 4, label %81
  ]

44:                                               ; preds = %42
  br label %45

45:                                               ; preds = %44
  br label %46

46:                                               ; preds = %45
  %47 = load i16, ptr %11, align 2, !tbaa !217
  %48 = zext i16 %47 to i32
  %49 = icmp ne i32 %48, 0
  br i1 %49, label %50, label %70

50:                                               ; preds = %46
  %51 = load i16, ptr %11, align 2, !tbaa !217
  %52 = zext i16 %51 to i32
  %53 = and i32 %52, 8
  %54 = icmp ne i32 %53, 0
  br i1 %54, label %55, label %57

55:                                               ; preds = %50
  %56 = load ptr, ptr %9, align 8, !tbaa !122
  store i32 1, ptr %56, align 4, !tbaa !8
  br label %68

57:                                               ; preds = %50
  %58 = load i16, ptr %11, align 2, !tbaa !217
  %59 = zext i16 %58 to i32
  %60 = and i32 %59, 16
  %61 = icmp ne i32 %60, 0
  br i1 %61, label %62, label %64

62:                                               ; preds = %57
  %63 = load ptr, ptr %9, align 8, !tbaa !122
  store i32 1, ptr %63, align 4, !tbaa !8
  br label %67

64:                                               ; preds = %57
  %65 = load ptr, ptr %6, align 8, !tbaa !32
  %66 = getelementptr inbounds nuw %struct.PaAlsaStreamComponent, ptr %65, i32 0, i32 16
  store i32 1, ptr %66, align 8, !tbaa !216
  br label %67

67:                                               ; preds = %64, %62
  br label %68

68:                                               ; preds = %67, %55
  %69 = load ptr, ptr %8, align 8, !tbaa !122
  store i32 0, ptr %69, align 4, !tbaa !8
  br label %80

70:                                               ; preds = %46
  %71 = load ptr, ptr %6, align 8, !tbaa !32
  %72 = getelementptr inbounds nuw %struct.PaAlsaStreamComponent, ptr %71, i32 0, i32 10
  %73 = load i32, ptr %72, align 4, !tbaa !177
  %74 = icmp ne i32 %73, 0
  br i1 %74, label %75, label %79

75:                                               ; preds = %70
  %76 = load ptr, ptr %6, align 8, !tbaa !32
  %77 = getelementptr inbounds nuw %struct.PaAlsaStreamComponent, ptr %76, i32 0, i32 16
  store i32 1, ptr %77, align 8, !tbaa !216
  %78 = load ptr, ptr %8, align 8, !tbaa !122
  store i32 0, ptr %78, align 4, !tbaa !8
  br label %79

79:                                               ; preds = %75, %70
  br label %80

80:                                               ; preds = %79, %68
  br label %81

81:                                               ; preds = %80, %42
  %82 = load i32, ptr %10, align 4, !tbaa !8
  store i32 %82, ptr %5, align 4
  store i32 1, ptr %13, align 4
  br label %83

83:                                               ; preds = %81, %42
  call void @llvm.lifetime.end.p0(i64 2, ptr %11) #17
  call void @llvm.lifetime.end.p0(i64 4, ptr %10) #17
  %84 = load i32, ptr %5, align 4
  ret i32 %84
}