; Function Attrs: nounwind uwtable
define internal fastcc range(i32 -9999, 1) i32 @PaAlsaStreamComponent_EndPolling(ptr noundef captures(none) %0, ptr noundef %1, ptr noundef nonnull writeonly captures(none) %2, ptr noundef nonnull writeonly captures(none) %3) unnamed_addr #2 {
  %5 = alloca i16, align 2
  call void @llvm.lifetime.start.p0(i64 2, ptr nonnull %5) #25
  %6 = getelementptr inbounds nuw i8, ptr %0, i64 56
  %7 = load ptr, ptr %6, align 8, !tbaa !147
  %8 = getelementptr inbounds nuw i8, ptr %0, i64 84
  %9 = load i32, ptr %8, align 4, !tbaa !212
  %10 = call i32 @snd_pcm_poll_descriptors_revents(ptr noundef %7, ptr noundef %1, i32 noundef %9, ptr noundef nonnull %5) #25, !callees !274
  %11 = icmp slt i32 %10, 0
  br i1 %11, label %12, label %19, !prof !9

12:                                               ; preds = %4
  %13 = tail call i64 @pthread_self() #28
  %14 = load i64, ptr @paUnixMainThread, align 8, !tbaa !108
  %.not = icmp eq i64 %13, %14
  br i1 %.not, label %15, label %18

15:                                               ; preds = %12
  %16 = sext i32 %10 to i64
  %17 = call ptr @snd_strerror(i32 noundef %10) #25, !callees !109
  call void @PaUtil_SetLastHostErrorInfo(i32 noundef 8, i64 noundef %16, ptr noundef %17) #25
  br label %18

18:                                               ; preds = %12, %15
  call void (ptr, ...) @PaUtil_DebugPrint(ptr noundef nonnull @.str.187) #25
  br label %36

19:                                               ; preds = %4
  %20 = load i16, ptr %5, align 2, !tbaa !275
  %21 = zext i16 %20 to i32
  %.not18 = icmp eq i16 %20, 0
  br i1 %.not18, label %31, label %22

22:                                               ; preds = %19
  %23 = and i32 %21, 8
  %.not20 = icmp eq i32 %23, 0
  br i1 %.not20, label %25, label %24

24:                                               ; preds = %22
  store i32 1, ptr %3, align 4, !tbaa !3
  br label %30

25:                                               ; preds = %22
  %26 = and i32 %21, 16
  %.not21 = icmp eq i32 %26, 0
  br i1 %.not21, label %28, label %27

27:                                               ; preds = %25
  store i32 1, ptr %3, align 4, !tbaa !3
  br label %30

28:                                               ; preds = %25
  %29 = getelementptr inbounds nuw i8, ptr %0, i64 88
  store i32 1, ptr %29, align 8, !tbaa !253
  br label %30

30:                                               ; preds = %27, %28, %24
  store i32 0, ptr %2, align 4, !tbaa !3
  br label %36

31:                                               ; preds = %19
  %32 = getelementptr inbounds nuw i8, ptr %0, i64 52
  %33 = load i32, ptr %32, align 4, !tbaa !209
  %.not19 = icmp eq i32 %33, 0
  br i1 %.not19, label %36, label %34

34:                                               ; preds = %31
  %35 = getelementptr inbounds nuw i8, ptr %0, i64 88
  store i32 1, ptr %35, align 8, !tbaa !253
  store i32 0, ptr %2, align 4, !tbaa !3
  br label %36

36:                                               ; preds = %18, %31, %34, %30
  %.01526 = phi i32 [ 0, %31 ], [ 0, %34 ], [ 0, %30 ], [ -9999, %18 ]
  call void @llvm.lifetime.end.p0(i64 2, ptr nonnull %5) #25
  ret i32 %.01526
}